target datalayout = "e-m:e-p270:32:32-p271:32:32-p272:64:64-i64:64-i128:128-f80:128-n8:16:32:64-S128"
target triple = "x86_64-pc-linux-gnu"

@.str.8 = private unnamed_addr constant [4 x i8] c"map\00", align 1

; Function Attrs: nounwind uwtable
define internal i32 @process_command(ptr noundef %0, ptr noundef %1, ptr noundef %2, ptr noundef %3, i32 noundef %4, i32 noundef %5) #1 {
  %7 = alloca i32, align 4
  %8 = alloca ptr, align 8
  %9 = alloca ptr, align 8
  %10 = alloca ptr, align 8
  %11 = alloca ptr, align 8
  %12 = alloca i32, align 4
  %13 = alloca i32, align 4
  %14 = alloca i32, align 4
  %15 = alloca i32, align 4
  store ptr %0, ptr %8, align 8, !tbaa !4
  store ptr %1, ptr %9, align 8, !tbaa !34
  store ptr %2, ptr %10, align 8, !tbaa !34
  store ptr %3, ptr %11, align 8, !tbaa !34
  store i32 %4, ptr %12, align 4, !tbaa !24
  store i32 %5, ptr %13, align 4, !tbaa !24
  %16 = load ptr, ptr %9, align 8, !tbaa !34
  %17 = call i32 @strcmp(ptr noundef %16, ptr noundef @.str.8) #11
  %18 = icmp ne i32 %17, 0
  br i1 %18, label %29, label %19

19:                                               ; preds = %6
  call void @llvm.lifetime.start.p0(i64 4, ptr %14) #10
  %20 = load ptr, ptr %8, align 8, !tbaa !4
  %21 = load ptr, ptr %10, align 8, !tbaa !34
  %22 = call i32 @parse_mapping(ptr noundef %20, ptr noundef %21)
  store i32 %22, ptr %14, align 4, !tbaa !24
  %23 = load i32, ptr %14, align 4, !tbaa !24
  %24 = icmp slt i32 %23, 0
  br i1 %24, label %25, label %27

25:                                               ; preds = %19
  %26 = load i32, ptr %14, align 4, !tbaa !24
  store i32 %26, ptr %7, align 4
  store i32 1, ptr %15, align 4
  br label %28

27:                                               ; preds = %19
  store i32 0, ptr %7, align 4
  store i32 1, ptr %15, align 4
  br label %28

28:                                               ; preds = %27, %25
  call void @llvm.lifetime.end.p0(i64 4, ptr %14) #10
  br label %30

29:                                               ; preds = %6
  store i32 -38, ptr %7, align 4
  br label %30

30:                                               ; preds = %29, %28
  %31 = load i32, ptr %7, align 4
  ret i32 %31
}