; Function Attrs: nounwind uwtable
define internal range(i32 -38, 1) i32 @process_command(ptr noundef %0, ptr noundef readonly captures(none) %1, ptr noundef %2, ptr readnone captures(none) %3, i32 %4, i32 %5) #1 {
  %7 = tail call i32 @strcmp(ptr noundef nonnull dereferenceable(1) %1, ptr noundef nonnull dereferenceable(4) @.str.8) #8
  %.not = icmp eq i32 %7, 0
  br i1 %.not, label %8, label %10

8:                                                ; preds = %6
  %9 = tail call fastcc i32 @parse_mapping(ptr noundef %0, ptr noundef %2)
  br label %10

10:                                               ; preds = %6, %8
  %.1 = phi i32 [ %9, %8 ], [ -38, %6 ]
  ret i32 %.1
}